; ModuleID = '29/1861.c'
source_filename = "29/1861.c"
target datalayout = "e-m:e-p270:32:32-p271:32:32-p272:64:64-i64:64-f80:128-n8:16:32:64-S128"
target triple = "x86_64-pc-linux-gnu"

@.str = private unnamed_addr constant [3 x i8] c"%d\00", align 1
@.str.1 = private unnamed_addr constant [6 x i8] c"%.3f\0A\00", align 1

; Function Attrs: noinline nounwind uwtable
define dso_local i32 @main() #0 {
  %1 = alloca i32, align 4
  %2 = alloca i32, align 4
  %3 = alloca i32, align 4
  %4 = alloca i32, align 4
  %5 = alloca [1000 x i32], align 16
  %6 = alloca [1000 x i32], align 16
  %7 = alloca [1000 x float], align 16
  %8 = alloca float, align 4
  store i32 0, i32* %1, align 4
  %9 = call i32 (i8*, ...) @__isoc99_scanf(i8* getelementptr inbounds ([3 x i8], [3 x i8]* @.str, i64 0, i64 0), i32* %2)
  store float 0.000000e+00, float* %8, align 4
  %10 = getelementptr inbounds [1000 x i32], [1000 x i32]* %5, i64 0, i64 0
  store i32 1, i32* %10, align 16
  %11 = getelementptr inbounds [1000 x i32], [1000 x i32]* %5, i64 0, i64 1
  store i32 2, i32* %11, align 4
  store i32 3, i32* %3, align 4
  br label %12

12:                                               ; preds = %50, %0
  %13 = load i32, i32* %3, align 4
  %14 = icmp sle i32 %13, 1000
  br i1 %14, label %15, label %53

15:                                               ; preds = %12
  %16 = load i32, i32* %3, align 4
  %17 = sub nsw i32 %16, 2
  %18 = sext i32 %17 to i64
  %19 = getelementptr inbounds [1000 x i32], [1000 x i32]* %5, i64 0, i64 %18
  %20 = load i32, i32* %19, align 4
  %21 = load i32, i32* %3, align 4
  %22 = sub nsw i32 %21, 3
  %23 = sext i32 %22 to i64
  %24 = getelementptr inbounds [1000 x i32], [1000 x i32]* %5, i64 0, i64 %23
  %25 = load i32, i32* %24, align 4
  %26 = add nsw i32 %20, %25
  %27 = load i32, i32* %3, align 4
  %28 = sub nsw i32 %27, 1
  %29 = sext i32 %28 to i64
  %30 = getelementptr inbounds [1000 x i32], [1000 x i32]* %5, i64 0, i64 %29
  store i32 %26, i32* %30, align 4
  %31 = load i32, i32* %3, align 4
  %32 = sub nsw i32 %31, 2
  %33 = sext i32 %32 to i64
  %34 = getelementptr inbounds [1000 x i32], [1000 x i32]* %5, i64 0, i64 %33
  %35 = load i32, i32* %34, align 4
  %36 = sitofp i32 %35 to double
  %37 = fmul double 1.000000e+00, %36
  %38 = load i32, i32* %3, align 4
  %39 = sub nsw i32 %38, 3
  %40 = sext i32 %39 to i64
  %41 = getelementptr inbounds [1000 x i32], [1000 x i32]* %5, i64 0, i64 %40
  %42 = load i32, i32* %41, align 4
  %43 = sitofp i32 %42 to double
  %44 = fdiv double %37, %43
  %45 = fptrunc double %44 to float
  %46 = load i32, i32* %3, align 4
  %47 = sub nsw i32 %46, 3
  %48 = sext i32 %47 to i64
  %49 = getelementptr inbounds [1000 x float], [1000 x float]* %7, i64 0, i64 %48
  store float %45, float* %49, align 4
  br label %50

50:                                               ; preds = %15
  %51 = load i32, i32* %3, align 4
  %52 = add nsw i32 %51, 1
  store i32 %52, i32* %3, align 4
  br label %12

53:                                               ; preds = %12
  store i32 1, i32* %3, align 4
  br label %54

54:                                               ; preds = %64, %53
  %55 = load i32, i32* %3, align 4
  %56 = load i32, i32* %2, align 4
  %57 = icmp sle i32 %55, %56
  br i1 %57, label %58, label %67

58:                                               ; preds = %54
  %59 = load i32, i32* %3, align 4
  %60 = sub nsw i32 %59, 1
  %61 = sext i32 %60 to i64
  %62 = getelementptr inbounds [1000 x i32], [1000 x i32]* %6, i64 0, i64 %61
  %63 = call i32 (i8*, ...) @__isoc99_scanf(i8* getelementptr inbounds ([3 x i8], [3 x i8]* @.str, i64 0, i64 0), i32* %62)
  br label %64

64:                                               ; preds = %58
  %65 = load i32, i32* %3, align 4
  %66 = add nsw i32 %65, 1
  store i32 %66, i32* %3, align 4
  br label %54

67:                                               ; preds = %54
  store i32 1, i32* %3, align 4
  br label %68

68:                                               ; preds = %96, %67
  %69 = load i32, i32* %3, align 4
  %70 = load i32, i32* %2, align 4
  %71 = icmp sle i32 %69, %70
  br i1 %71, label %72, label %99

72:                                               ; preds = %68
  store float 0.000000e+00, float* %8, align 4
  store i32 1, i32* %4, align 4
  br label %73

73:                                               ; preds = %89, %72
  %74 = load i32, i32* %4, align 4
  %75 = load i32, i32* %3, align 4
  %76 = sub nsw i32 %75, 1
  %77 = sext i32 %76 to i64
  %78 = getelementptr inbounds [1000 x i32], [1000 x i32]* %6, i64 0, i64 %77
  %79 = load i32, i32* %78, align 4
  %80 = icmp sle i32 %74, %79
  br i1 %80, label %81, label %92

81:                                               ; preds = %73
  %82 = load float, float* %8, align 4
  %83 = load i32, i32* %4, align 4
  %84 = sub nsw i32 %83, 1
  %85 = sext i32 %84 to i64
  %86 = getelementptr inbounds [1000 x float], [1000 x float]* %7, i64 0, i64 %85
  %87 = load float, float* %86, align 4
  %88 = fadd float %82, %87
  store float %88, float* %8, align 4
  br label %89

89:                                               ; preds = %81
  %90 = load i32, i32* %4, align 4
  %91 = add nsw i32 %90, 1
  store i32 %91, i32* %4, align 4
  br label %73

92:                                               ; preds = %73
  %93 = load float, float* %8, align 4
  %94 = fpext float %93 to double
  %95 = call i32 (i8*, ...) @printf(i8* getelementptr inbounds ([6 x i8], [6 x i8]* @.str.1, i64 0, i64 0), double %94)
  br label %96

96:                                               ; preds = %92
  %97 = load i32, i32* %3, align 4
  %98 = add nsw i32 %97, 1
  store i32 %98, i32* %3, align 4
  br label %68

99:                                               ; preds = %68
  ret i32 0
}

declare dso_local i32 @__isoc99_scanf(i8*, ...) #1

declare dso_local i32 @printf(i8*, ...) #1


!llvm.module.flags = !{!0}
!llvm.ident = !{!1}

!0 = !{i32 1, !"wchar_size", i32 4}
!1 = !{!"clang version 10.0.0-4ubuntu1 "}
